; Function Attrs: null_pointer_is_valid sspstrong uwtable
define internal range(i32 -1, 2) i32 @cond_char(ptr noundef %0, i32 noundef %1, ptr noundef %2, ptr noundef writeonly captures(none) %3) #0 {
  %5 = add i32 %1, 1
  %6 = getelementptr inbounds nuw i8, ptr %0, i64 20
  %7 = load i32, ptr %6, align 4
  %8 = icmp sgt i32 %5, %7
  br i1 %8, label %.critedge, label %9

9:                                                ; preds = %4
  %10 = getelementptr inbounds nuw i8, ptr %0, i64 8
  %11 = load ptr, ptr %10, align 8
  %12 = tail call zeroext i8 @tvb_get_uint8(ptr noundef %11, i32 noundef %1)
  %13 = getelementptr inbounds nuw i8, ptr %2, i64 16
  %14 = load ptr, ptr %13, align 8
  %15 = load i8, ptr %14, align 1
  %.not20 = icmp eq i8 %15, 0
  br i1 %.not20, label %.critedge, label %.lr.ph

.lr.ph:                                           ; preds = %9
  %16 = load i32, ptr %6, align 4
  %.not19 = icmp sgt i32 %1, %16
  br i1 %.not19, label %.critedge, label %.lr.ph.split

17:                                               ; preds = %.lr.ph.split
  %18 = add i32 %.021, 1
  %19 = zext i32 %18 to i64
  %20 = getelementptr i8, ptr %14, i64 %19
  %21 = load i8, ptr %20, align 1
  %.not = icmp eq i8 %21, 0
  br i1 %.not, label %.critedge, label %.lr.ph.split, !llvm.loop !6

.lr.ph.split:                                     ; preds = %.lr.ph, %17
  %22 = phi i8 [ %21, %17 ], [ %15, %.lr.ph ]
  %.021 = phi i32 [ %18, %17 ], [ 0, %.lr.ph ]
  %23 = icmp eq i8 %22, %12
  br i1 %23, label %24, label %17

24:                                               ; preds = %.lr.ph.split
  %25 = load i32, ptr %2, align 8
  %26 = load ptr, ptr %0, align 8
  %27 = tail call noalias dereferenceable_or_null(72) ptr @wmem_alloc(ptr noundef %26, i64 noundef 72) #11
  %28 = getelementptr inbounds nuw i8, ptr %27, i64 8
  store ptr %0, ptr %28, align 8
  %29 = load ptr, ptr %10, align 8
  %30 = getelementptr inbounds nuw i8, ptr %27, i64 16
  store ptr %29, ptr %30, align 8
  store i32 %25, ptr %27, align 8
  %31 = getelementptr inbounds nuw i8, ptr %27, i64 24
  store i32 %1, ptr %31, align 8
  %32 = getelementptr inbounds nuw i8, ptr %27, i64 28
  store i32 1, ptr %32, align 4
  %33 = getelementptr inbounds nuw i8, ptr %27, i64 32
  %34 = getelementptr inbounds nuw i8, ptr %27, i64 64
  tail call void @llvm.memset.p0.i64(ptr noundef nonnull align 8 dereferenceable(24) %33, i8 0, i64 24, i1 false)
  store ptr %2, ptr %34, align 8
  %35 = getelementptr inbounds nuw i8, ptr %27, i64 56
  store ptr %27, ptr %35, align 8
  store ptr %27, ptr %3, align 8
  br label %.critedge

.critedge:                                        ; preds = %17, %9, %.lr.ph, %4, %24
  %.016 = phi i32 [ 1, %24 ], [ -1, %4 ], [ -1, %.lr.ph ], [ -1, %9 ], [ -1, %17 ]
  ret i32 %.016
}